; Function Attrs: nounwind uwtable
define internal void @t1_builder_add_point(ptr noundef readonly captures(none) %0, i64 noundef %1, i64 noundef %2, i8 noundef zeroext %3) #0 {
  %5 = getelementptr inbounds nuw i8, ptr %0, i64 40
  %6 = load ptr, ptr %5, align 8
  %7 = getelementptr inbounds nuw i8, ptr %0, i64 132
  %8 = load i8, ptr %7, align 4
  %.not = icmp eq i8 %8, 0
  br i1 %.not, label %25, label %9

9:                                                ; preds = %4
  %10 = getelementptr inbounds nuw i8, ptr %6, i64 8
  %11 = load ptr, ptr %10, align 8
  %12 = getelementptr inbounds nuw i8, ptr %6, i64 2
  %13 = load i16, ptr %12, align 2
  %14 = zext i16 %13 to i64
  %15 = getelementptr inbounds nuw %struct.FT_Vector_, ptr %11, i64 %14
  %16 = getelementptr inbounds nuw i8, ptr %6, i64 16
  %17 = load ptr, ptr %16, align 8
  %18 = getelementptr inbounds nuw i8, ptr %17, i64 %14
  %19 = tail call i64 @FT_RoundFix(i64 noundef %1) #20
  %20 = ashr i64 %19, 16
  store i64 %20, ptr %15, align 8
  %21 = tail call i64 @FT_RoundFix(i64 noundef %2) #20
  %22 = ashr i64 %21, 16
  %23 = getelementptr inbounds nuw i8, ptr %15, i64 8
  store i64 %22, ptr %23, align 8
  %.not12 = icmp eq i8 %3, 0
  %24 = select i1 %.not12, i8 2, i8 1
  store i8 %24, ptr %18, align 1
  br label %25

25:                                               ; preds = %9, %4
  %26 = getelementptr inbounds nuw i8, ptr %6, i64 2
  %27 = load i16, ptr %26, align 2
  %28 = add i16 %27, 1
  store i16 %28, ptr %26, align 2
  ret void
}